---
triple:          'arm64-apple-darwin'
binary-path:     '/Users/firdanu/Tament/src/output/tes'
relocations:
  - { offsetInCU: 0x2EC3, offset: 0x2EC3, size: 0x8, addend: 0x0, symName: __ZNSt3__124__put_character_sequenceB8ue170006IcNS_11char_traitsIcEEEERNS_13basic_ostreamIT_T0_EES7_PKS4_m, symObjAddr: 0x128C, symBinAddr: 0x100003AC8, symSize: 0x1F4 }
  - { offsetInCU: 0x6874, offset: 0x6874, size: 0x8, addend: 0x0, symName: __ZNSt3__1lsB8ue170006INS_11char_traitsIcEEEERNS_13basic_ostreamIcT_EES6_PKc, symObjAddr: 0xA0, symBinAddr: 0x1000028DC, symSize: 0x48 }
  - { offsetInCU: 0x68BA, offset: 0x68BA, size: 0x8, addend: 0x0, symName: __ZNSt3__17getlineB8ue170006IcNS_11char_traitsIcEENS_9allocatorIcEEEERNS_13basic_istreamIT_T0_EES9_RNS_12basic_stringIS6_S7_T1_EE, symObjAddr: 0x54C, symBinAddr: 0x100002D88, symSize: 0x5C }
  - { offsetInCU: 0x6912, offset: 0x6912, size: 0x8, addend: 0x0, symName: __ZNSt3__1lsB8ue170006IcNS_11char_traitsIcEEEERNS_13basic_ostreamIT_T0_EES7_RKNS_8__iom_t6E, symObjAddr: 0x984, symBinAddr: 0x1000031C0, symSize: 0x40 }
  - { offsetInCU: 0x6961, offset: 0x6961, size: 0x8, addend: 0x0, symName: __ZNSt3__14leftB8ue170006ERNS_8ios_baseE, symObjAddr: 0xA04, symBinAddr: 0x100003240, symSize: 0x30 }
  - { offsetInCU: 0x698F, offset: 0x698F, size: 0x8, addend: 0x0, symName: __ZNSt3__14setwB8ue170006Ei, symObjAddr: 0xA34, symBinAddr: 0x100003270, symSize: 0x2C }
  - { offsetInCU: 0x69BD, offset: 0x69BD, size: 0x8, addend: 0x0, symName: __ZNSt3__14endlB8ue170006IcNS_11char_traitsIcEEEERNS_13basic_ostreamIT_T0_EES7_, symObjAddr: 0xA8C, symBinAddr: 0x1000032C8, symSize: 0x58 }
  - { offsetInCU: 0x69FD, offset: 0x69FD, size: 0x8, addend: 0x0, symName: __ZNSt3__1lsB8ue170006IcNS_11char_traitsIcEENS_9allocatorIcEEEERNS_13basic_ostreamIT_T0_EES9_RKNS_12basic_stringIS6_S7_T1_EE, symObjAddr: 0xAE4, symBinAddr: 0x100003320, symSize: 0x4C }
  - { offsetInCU: 0x6A55, offset: 0x6A55, size: 0x8, addend: 0x0, symName: __ZNSt3__1neB8ue170006IPKP4TaskEEbRKNS_11__wrap_iterIT_EES9_, symObjAddr: 0xBCC, symBinAddr: 0x100003408, symSize: 0x34 }
  - { offsetInCU: 0x6A98, offset: 0x6A98, size: 0x8, addend: 0x0, symName: __ZNSt3__116__pad_and_outputB8ue170006IcNS_11char_traitsIcEEEENS_19ostreambuf_iteratorIT_T0_EES6_PKS4_S8_S8_RNS_8ios_baseES4_, symObjAddr: 0x14E4, symBinAddr: 0x100003D20, symSize: 0x248 }
  - { offsetInCU: 0x6B67, offset: 0x6B67, size: 0x8, addend: 0x0, symName: __ZNSt3__112__to_addressB8ue170006IKcEEPT_S3_, symObjAddr: 0x18D4, symBinAddr: 0x100004110, symSize: 0x14 }
  - { offsetInCU: 0x6B9C, offset: 0x6B9C, size: 0x8, addend: 0x0, symName: __ZNSt3__130__libcpp_is_constant_evaluatedB8ue170006Ev, symObjAddr: 0x1A00, symBinAddr: 0x10000423C, symSize: 0xC }
  - { offsetInCU: 0x6BEC, offset: 0x6BEC, size: 0x8, addend: 0x0, symName: __ZNSt3__19use_facetB8ue170006INS_5ctypeIcEEEERKT_RKNS_6localeE, symObjAddr: 0x1BB0, symBinAddr: 0x1000043EC, symSize: 0x2C }
  - { offsetInCU: 0x70B9, offset: 0x70B9, size: 0x8, addend: 0x0, symName: __ZNSt3__118__constexpr_strlenB8ue170006EPKc, symObjAddr: 0x1C48, symBinAddr: 0x100004484, symSize: 0x24 }
  - { offsetInCU: 0x70E5, offset: 0x70E5, size: 0x8, addend: 0x0, symName: __ZNSt3__117__libcpp_allocateB8ue170006Emm, symObjAddr: 0x21B8, symBinAddr: 0x1000049F4, symSize: 0x28 }
  - { offsetInCU: 0x7122, offset: 0x7122, size: 0x8, addend: 0x0, symName: __ZNSt3__121__libcpp_operator_newB8ue170006IJmEEEPvDpT_, symObjAddr: 0x21F4, symBinAddr: 0x100004A30, symSize: 0x24 }
  - { offsetInCU: 0x715B, offset: 0x715B, size: 0x8, addend: 0x0, symName: __ZNSt3__17getlineB8ue170006IcNS_11char_traitsIcEENS_9allocatorIcEEEERNS_13basic_istreamIT_T0_EES9_RNS_12basic_stringIS6_S7_T1_EES6_, symObjAddr: 0x2250, symBinAddr: 0x100004A8C, symSize: 0x238 }
  - { offsetInCU: 0x79D9, offset: 0x79D9, size: 0x8, addend: 0x0, symName: __ZNSt3__1eqB8ue170006IPKP4TaskEEbRKNS_11__wrap_iterIT_EES9_, symObjAddr: 0x2A2C, symBinAddr: 0x100005268, symSize: 0x48 }
  - { offsetInCU: 0x7A1C, offset: 0x7A1C, size: 0x8, addend: 0x0, symName: __ZNSt3__112__to_addressB8ue170006IP4TaskEEPT_S4_, symObjAddr: 0x2F3C, symBinAddr: 0x100005778, symSize: 0x14 }
  - { offsetInCU: 0x7A51, offset: 0x7A51, size: 0x8, addend: 0x0, symName: __ZNSt3__119__libcpp_deallocateB8ue170006EPvmm, symObjAddr: 0x3044, symBinAddr: 0x100005880, symSize: 0x30 }
  - { offsetInCU: 0x7A99, offset: 0x7A99, size: 0x8, addend: 0x0, symName: __ZNSt3__127__do_deallocate_handle_sizeB8ue170006IJEEEvPvmDpT_, symObjAddr: 0x3074, symBinAddr: 0x1000058B0, symSize: 0x28 }
  - { offsetInCU: 0x7AD7, offset: 0x7AD7, size: 0x8, addend: 0x0, symName: __ZNSt3__124__libcpp_operator_deleteB8ue170006IJPvEEEvDpT_, symObjAddr: 0x309C, symBinAddr: 0x1000058D8, symSize: 0x24 }
  - { offsetInCU: 0x7B0C, offset: 0x7B0C, size: 0x8, addend: 0x0, symName: __ZNSt3__13maxB8ue170006ImEERKT_S3_S3_, symObjAddr: 0x371C, symBinAddr: 0x100005F58, symSize: 0x2C }
  - { offsetInCU: 0x7B4F, offset: 0x7B4F, size: 0x8, addend: 0x0, symName: __ZNSt3__13minB8ue170006ImEERKT_S3_S3_, symObjAddr: 0x3748, symBinAddr: 0x100005F84, symSize: 0x2C }
  - { offsetInCU: 0x7D93, offset: 0x7D93, size: 0x8, addend: 0x0, symName: __ZNSt3__13minB8ue170006ImNS_6__lessIvvEEEERKT_S5_S5_T0_, symObjAddr: 0x37D4, symBinAddr: 0x100006010, symSize: 0x54 }
  - { offsetInCU: 0x7E32, offset: 0x7E32, size: 0x8, addend: 0x0, symName: __ZNSt3__120__throw_length_errorB8ue170006EPKc, symObjAddr: 0x38B0, symBinAddr: 0x1000060EC, symSize: 0x64 }
  - { offsetInCU: 0x7E5C, offset: 0x7E5C, size: 0x8, addend: 0x0, symName: __ZNSt3__13maxB8ue170006ImNS_6__lessIvvEEEERKT_S5_S5_T0_, symObjAddr: 0x3994, symBinAddr: 0x1000061D0, symSize: 0x54 }
  - { offsetInCU: 0x7EB6, offset: 0x7EB6, size: 0x8, addend: 0x0, symName: __ZNSt3__119__allocate_at_leastB8ue170006INS_9allocatorIP4TaskEEEENS_19__allocation_resultINS_16allocator_traitsIT_E7pointerEEERS7_m, symObjAddr: 0x3AF8, symBinAddr: 0x100006334, symSize: 0x40 }
  - { offsetInCU: 0x7EF9, offset: 0x7EF9, size: 0x8, addend: 0x0, symName: __ZNSt3__142__uninitialized_allocator_move_if_noexceptB8ue170006INS_9allocatorIP4TaskEENS_16reverse_iteratorIPS3_EES7_S3_vEET1_RT_T0_SB_S8_, symObjAddr: 0x3CD8, symBinAddr: 0x100006514, symSize: 0xE8 }
  - { offsetInCU: 0x7F76, offset: 0x7F76, size: 0x8, addend: 0x0, symName: __ZNSt3__14swapB8ue170006IPP4TaskEEvRT_S5_, symObjAddr: 0x3E0C, symBinAddr: 0x100006648, symSize: 0x3C }
  - { offsetInCU: 0x7FC7, offset: 0x7FC7, size: 0x8, addend: 0x0, symName: __ZNSt3__1neB8ue170006IPP4TaskS3_EEbRKNS_16reverse_iteratorIT_EERKNS4_IT0_EE, symObjAddr: 0x3EF4, symBinAddr: 0x100006730, symSize: 0x48 }
  - { offsetInCU: 0x8038, offset: 0x8038, size: 0x8, addend: 0x0, symName: __ZNSt3__114__construct_atB8ue170006IP4TaskJS2_EPS2_EEPT_S5_DpOT0_, symObjAddr: 0x3F3C, symBinAddr: 0x100006778, symSize: 0x2C }
  - { offsetInCU: 0x80A8, offset: 0x80A8, size: 0x8, addend: 0x0, symName: __ZNSt3__112__to_addressB8ue170006INS_16reverse_iteratorIPP4TaskEEvEEu7__decayIDTclsr19__to_address_helperIT_EE6__callclsr3stdE7declvalIRKS6_EEEEES8_, symObjAddr: 0x3F68, symBinAddr: 0x1000067A4, symSize: 0x24 }
  - { offsetInCU: 0x80DE, offset: 0x80DE, size: 0x8, addend: 0x0, symName: __ZNSt3__14moveB8ue170006INS_16reverse_iteratorIPP4TaskEES5_EET0_T_S7_S6_, symObjAddr: 0x3FD4, symBinAddr: 0x100006810, symSize: 0x78 }
  - { offsetInCU: 0x8161, offset: 0x8161, size: 0x8, addend: 0x0, symName: __ZNSt3__16__moveB8ue170006INS_17_ClassicAlgPolicyENS_16reverse_iteratorIPP4TaskEES6_S6_EENS_4pairIT0_T2_EES8_T1_S9_, symObjAddr: 0x40BC, symBinAddr: 0x1000068F8, symSize: 0x64 }
  - { offsetInCU: 0x81CD, offset: 0x81CD, size: 0x8, addend: 0x0, symName: __ZNSt3__123__dispatch_copy_or_moveB8ue170006INS_17_ClassicAlgPolicyENS_11__move_loopIS1_EENS_14__move_trivialENS_16reverse_iteratorIPP4TaskEES9_S9_EENS_4pairIT2_T4_EESB_T3_SC_, symObjAddr: 0x4120, symBinAddr: 0x10000695C, symSize: 0x64 }
  - { offsetInCU: 0x824B, offset: 0x824B, size: 0x8, addend: 0x0, symName: __ZNSt3__121__unwrap_and_dispatchB8ue170006INS_10__overloadINS_11__move_loopINS_17_ClassicAlgPolicyEEENS_14__move_trivialEEENS_16reverse_iteratorIPP4TaskEESB_SB_Li0EEENS_4pairIT0_T2_EESD_T1_SE_, symObjAddr: 0x4184, symBinAddr: 0x1000069C0, symSize: 0x12C }
  - { offsetInCU: 0x82DB, offset: 0x82DB, size: 0x8, addend: 0x0, symName: __ZNSt3__114__unwrap_rangeB8ue170006INS_16reverse_iteratorIPP4TaskEES5_EENS_4pairIT0_S7_EET_S9_, symObjAddr: 0x42B0, symBinAddr: 0x100006AEC, symSize: 0x84 }
  - { offsetInCU: 0x842F, offset: 0x842F, size: 0x8, addend: 0x0, symName: __ZNSt3__113__unwrap_iterB8ue170006INS_16reverse_iteratorIPP4TaskEENS_18__unwrap_iter_implIS5_Lb0EEELi0EEEDTclsrT0_8__unwrapclsr3stdE7declvalIT_EEEES9_, symObjAddr: 0x43D4, symBinAddr: 0x100006C10, symSize: 0x44 }
  - { offsetInCU: 0x8473, offset: 0x8473, size: 0x8, addend: 0x0, symName: __ZNSt3__19make_pairB8ue170006INS_16reverse_iteratorIPP4TaskEES5_EENS_4pairINS_18__unwrap_ref_decayIT_E4typeENS7_IT0_E4typeEEEOS8_OSB_, symObjAddr: 0x4418, symBinAddr: 0x100006C54, symSize: 0x38 }
  - { offsetInCU: 0x84C2, offset: 0x84C2, size: 0x8, addend: 0x0, symName: __ZNSt3__114__rewrap_rangeB8ue170006INS_16reverse_iteratorIPP4TaskEES5_EET_S6_T0_, symObjAddr: 0x4450, symBinAddr: 0x100006C8C, symSize: 0x5C }
  - { offsetInCU: 0x850E, offset: 0x850E, size: 0x8, addend: 0x0, symName: __ZNSt3__113__rewrap_iterB8ue170006INS_16reverse_iteratorIPP4TaskEES5_NS_18__unwrap_iter_implIS5_Lb0EEEEET_S8_T0_, symObjAddr: 0x44AC, symBinAddr: 0x100006CE8, symSize: 0x88 }
  - { offsetInCU: 0x87F3, offset: 0x87F3, size: 0x8, addend: 0x0, symName: __ZSt28__throw_bad_array_new_lengthB8ue170006v, symObjAddr: 0x2184, symBinAddr: 0x1000049C0, symSize: 0x34 }
  - { offsetInCU: 0x8E02, offset: 0x8E02, size: 0x8, addend: 0x0, symName: __ZNSt3__16vectorIP4TaskNS_9allocatorIS2_EEE26__swap_out_circular_bufferERNS_14__split_bufferIS2_RS4_EE, symObjAddr: 0x3550, symBinAddr: 0x100005D8C, symSize: 0x110 }
  - { offsetInCU: 0xB18C, offset: 0xB18C, size: 0x8, addend: 0x0, symName: __Z6bannerv, symObjAddr: 0x0, symBinAddr: 0x10000283C, symSize: 0xA0 }
  - { offsetInCU: 0xB1A5, offset: 0xB1A5, size: 0x8, addend: 0x0, symName: __Z14statusToString6Status, symObjAddr: 0xE8, symBinAddr: 0x100002924, symSize: 0x8C }
  - { offsetInCU: 0xB1D7, offset: 0xB1D7, size: 0x8, addend: 0x0, symName: __ZNSt3__112basic_stringIcNS_11char_traitsIcEENS_9allocatorIcEEEC1B8ue170006ILi0EEEPKc, symObjAddr: 0x174, symBinAddr: 0x1000029B0, symSize: 0x34 }
  - { offsetInCU: 0xB214, offset: 0xB214, size: 0x8, addend: 0x0, symName: __Z16kategoriToString8Kategori, symObjAddr: 0x1A8, symBinAddr: 0x1000029E4, symSize: 0xB4 }
  - { offsetInCU: 0xB240, offset: 0xB240, size: 0x8, addend: 0x0, symName: __Z13inputKategoriv, symObjAddr: 0x25C, symBinAddr: 0x100002A98, symSize: 0xA4 }
  - { offsetInCU: 0xB26D, offset: 0xB26D, size: 0x8, addend: 0x0, symName: __ZNSt3__111char_traitsIcE3eofB8ue170006Ev, symObjAddr: 0x300, symBinAddr: 0x100002B3C, symSize: 0x8 }
  - { offsetInCU: 0xB280, offset: 0xB280, size: 0x8, addend: 0x0, symName: __Z10createTaskv, symObjAddr: 0x308, symBinAddr: 0x100002B44, symSize: 0x218 }
  - { offsetInCU: 0xB2D8, offset: 0xB2D8, size: 0x8, addend: 0x0, symName: __ZNSt3__112basic_stringIcNS_11char_traitsIcEENS_9allocatorIcEEEC1B8ue170006Ev, symObjAddr: 0x520, symBinAddr: 0x100002D5C, symSize: 0x2C }
  - { offsetInCU: 0xB301, offset: 0xB301, size: 0x8, addend: 0x0, symName: __ZN4TaskC1ENSt3__112basic_stringIcNS0_11char_traitsIcEENS0_9allocatorIcEEEES6_6Status8Kategori, symObjAddr: 0x5A8, symBinAddr: 0x100002DE4, symSize: 0x4C }
  - { offsetInCU: 0xB364, offset: 0xB364, size: 0x8, addend: 0x0, symName: __Z12displayTasksRKNSt3__16vectorIP4TaskNS_9allocatorIS2_EEEE, symObjAddr: 0x600, symBinAddr: 0x100002E3C, symSize: 0x384 }
  - { offsetInCU: 0xB3D2, offset: 0xB3D2, size: 0x8, addend: 0x0, symName: __ZNSt3__113basic_ostreamIcNS_11char_traitsIcEEElsB8ue170006EPFRNS_8ios_baseES5_E, symObjAddr: 0x9C4, symBinAddr: 0x100003200, symSize: 0x40 }
  - { offsetInCU: 0xB405, offset: 0xB405, size: 0x8, addend: 0x0, symName: __ZNSt3__113basic_ostreamIcNS_11char_traitsIcEEElsB8ue170006EPFRS3_S4_E, symObjAddr: 0xA60, symBinAddr: 0x10000329C, symSize: 0x2C }
  - { offsetInCU: 0xB438, offset: 0xB438, size: 0x8, addend: 0x0, symName: __ZNSt3__112basic_stringIcNS_11char_traitsIcEENS_9allocatorIcEEEC1B8ue170006Emc, symObjAddr: 0xB30, symBinAddr: 0x10000336C, symSize: 0x3C }
  - { offsetInCU: 0xB47E, offset: 0xB47E, size: 0x8, addend: 0x0, symName: __ZNKSt3__16vectorIP4TaskNS_9allocatorIS2_EEE5beginB8ue170006Ev, symObjAddr: 0xB6C, symBinAddr: 0x1000033A8, symSize: 0x30 }
  - { offsetInCU: 0xB4A4, offset: 0xB4A4, size: 0x8, addend: 0x0, symName: __ZNKSt3__16vectorIP4TaskNS_9allocatorIS2_EEE3endB8ue170006Ev, symObjAddr: 0xB9C, symBinAddr: 0x1000033D8, symSize: 0x30 }
  - { offsetInCU: 0xB4CB, offset: 0xB4CB, size: 0x8, addend: 0x0, symName: __ZNKSt3__111__wrap_iterIPKP4TaskEdeB8ue170006Ev, symObjAddr: 0xC00, symBinAddr: 0x10000343C, symSize: 0x18 }
  - { offsetInCU: 0xB4F0, offset: 0xB4F0, size: 0x8, addend: 0x0, symName: __ZNSt3__111__wrap_iterIPKP4TaskEppB8ue170006Ev, symObjAddr: 0xC18, symBinAddr: 0x100003454, symSize: 0x20 }
  - { offsetInCU: 0xB515, offset: 0xB515, size: 0x8, addend: 0x0, symName: __Z22displayTasksByCategoryRKNSt3__16vectorIP4TaskNS_9allocatorIS2_EEEE8Kategori, symObjAddr: 0xC38, symBinAddr: 0x100003474, symSize: 0xF4 }
  - { offsetInCU: 0xB5A4, offset: 0xB5A4, size: 0x8, addend: 0x0, symName: __ZNSt3__16vectorIP4TaskNS_9allocatorIS2_EEEC1B8ue170006Ev, symObjAddr: 0xD2C, symBinAddr: 0x100003568, symSize: 0x2C }
  - { offsetInCU: 0xB5CC, offset: 0xB5CC, size: 0x8, addend: 0x0, symName: __ZNSt3__16vectorIP4TaskNS_9allocatorIS2_EEE9push_backB8ue170006EOS2_, symObjAddr: 0xD58, symBinAddr: 0x100003594, symSize: 0x6C }
  - { offsetInCU: 0xB602, offset: 0xB602, size: 0x8, addend: 0x0, symName: __ZNSt3__16vectorIP4TaskNS_9allocatorIS2_EEED1B8ue170006Ev, symObjAddr: 0xDC4, symBinAddr: 0x100003600, symSize: 0x2C }
  - { offsetInCU: 0xB62B, offset: 0xB62B, size: 0x8, addend: 0x0, symName: __Z15displayAllTasksRKNSt3__16vectorIP4TaskNS_9allocatorIS2_EEEE, symObjAddr: 0xDF0, symBinAddr: 0x10000362C, symSize: 0x24 }
  - { offsetInCU: 0xB654, offset: 0xB654, size: 0x8, addend: 0x0, symName: _main, symObjAddr: 0xE14, symBinAddr: 0x100003650, symSize: 0x290 }
  - { offsetInCU: 0xB6D8, offset: 0xB6D8, size: 0x8, addend: 0x0, symName: __ZNSt3__16vectorIP4TaskNS_9allocatorIS2_EEE9push_backB8ue170006ERKS2_, symObjAddr: 0x10B4, symBinAddr: 0x1000038F0, symSize: 0x6C }
  - { offsetInCU: 0xB70E, offset: 0xB70E, size: 0x8, addend: 0x0, symName: __ZN4TaskC2ENSt3__112basic_stringIcNS0_11char_traitsIcEENS0_9allocatorIcEEEES6_6Status8Kategori, symObjAddr: 0x1120, symBinAddr: 0x10000395C, symSize: 0x94 }
  - { offsetInCU: 0xB770, offset: 0xB770, size: 0x8, addend: 0x0, symName: __ZNSt3__18ios_base4setfB8ue170006Ejj, symObjAddr: 0x11B4, symBinAddr: 0x1000039F0, symSize: 0x5C }
  - { offsetInCU: 0xB7C4, offset: 0xB7C4, size: 0x8, addend: 0x0, symName: __ZNSt3__18ios_base6unsetfB8ue170006Ej, symObjAddr: 0x1210, symBinAddr: 0x100003A4C, symSize: 0x28 }
  - { offsetInCU: 0xB7FA, offset: 0xB7FA, size: 0x8, addend: 0x0, symName: __ZNSt3__18__iom_t6C1B8ue170006Ei, symObjAddr: 0x1238, symBinAddr: 0x100003A74, symSize: 0x34 }
  - { offsetInCU: 0xB831, offset: 0xB831, size: 0x8, addend: 0x0, symName: __ZNSt3__18__iom_t6C2B8ue170006Ei, symObjAddr: 0x126C, symBinAddr: 0x100003AA8, symSize: 0x20 }
  - { offsetInCU: 0xB868, offset: 0xB868, size: 0x8, addend: 0x0, symName: __ZNSt3__111char_traitsIcE6lengthB8ue170006EPKc, symObjAddr: 0x1480, symBinAddr: 0x100003CBC, symSize: 0x48 }
  - { offsetInCU: 0xB8A9, offset: 0xB8A9, size: 0x8, addend: 0x0, symName: __ZNKSt3__113basic_ostreamIcNS_11char_traitsIcEEE6sentrycvbB8ue170006Ev, symObjAddr: 0x14C8, symBinAddr: 0x100003D04, symSize: 0x1C }
  - { offsetInCU: 0xB8CE, offset: 0xB8CE, size: 0x8, addend: 0x0, symName: __ZNSt3__119ostreambuf_iteratorIcNS_11char_traitsIcEEEC1B8ue170006ERNS_13basic_ostreamIcS2_EE, symObjAddr: 0x172C, symBinAddr: 0x100003F68, symSize: 0x34 }
  - { offsetInCU: 0xB905, offset: 0xB905, size: 0x8, addend: 0x0, symName: __ZNKSt3__18ios_base5flagsB8ue170006Ev, symObjAddr: 0x1760, symBinAddr: 0x100003F9C, symSize: 0x18 }
  - { offsetInCU: 0xB92B, offset: 0xB92B, size: 0x8, addend: 0x0, symName: __ZNKSt3__19basic_iosIcNS_11char_traitsIcEEE4fillB8ue170006Ev, symObjAddr: 0x1778, symBinAddr: 0x100003FB4, symSize: 0x64 }
  - { offsetInCU: 0xB952, offset: 0xB952, size: 0x8, addend: 0x0, symName: __ZNKSt3__119ostreambuf_iteratorIcNS_11char_traitsIcEEE6failedB8ue170006Ev, symObjAddr: 0x17DC, symBinAddr: 0x100004018, symSize: 0x24 }
  - { offsetInCU: 0xB977, offset: 0xB977, size: 0x8, addend: 0x0, symName: __ZNSt3__19basic_iosIcNS_11char_traitsIcEEE8setstateB8ue170006Ej, symObjAddr: 0x1800, symBinAddr: 0x10000403C, symSize: 0x2C }
  - { offsetInCU: 0xB9AB, offset: 0xB9AB, size: 0x8, addend: 0x0, symName: __ZNKSt3__18ios_base5widthB8ue170006Ev, symObjAddr: 0x182C, symBinAddr: 0x100004068, symSize: 0x18 }
  - { offsetInCU: 0xB9D2, offset: 0xB9D2, size: 0x8, addend: 0x0, symName: __ZNSt3__115basic_streambufIcNS_11char_traitsIcEEE5sputnB8ue170006EPKcl, symObjAddr: 0x1844, symBinAddr: 0x100004080, symSize: 0x3C }
  - { offsetInCU: 0xBA13, offset: 0xBA13, size: 0x8, addend: 0x0, symName: __ZNKSt3__112basic_stringIcNS_11char_traitsIcEENS_9allocatorIcEEE4dataB8ue170006Ev, symObjAddr: 0x1880, symBinAddr: 0x1000040BC, symSize: 0x28 }
  - { offsetInCU: 0xBA38, offset: 0xBA38, size: 0x8, addend: 0x0, symName: __ZNSt3__18ios_base5widthB8ue170006El, symObjAddr: 0x18A8, symBinAddr: 0x1000040E4, symSize: 0x2C }
  - { offsetInCU: 0xBA7D, offset: 0xBA7D, size: 0x8, addend: 0x0, symName: __ZNKSt3__112basic_stringIcNS_11char_traitsIcEENS_9allocatorIcEEE13__get_pointerB8ue170006Ev, symObjAddr: 0x18E8, symBinAddr: 0x100004124, symSize: 0x54 }
  - { offsetInCU: 0xBAA2, offset: 0xBAA2, size: 0x8, addend: 0x0, symName: __ZNKSt3__112basic_stringIcNS_11char_traitsIcEENS_9allocatorIcEEE9__is_longB8ue170006Ev, symObjAddr: 0x193C, symBinAddr: 0x100004178, symSize: 0x74 }
  - { offsetInCU: 0xBAC7, offset: 0xBAC7, size: 0x8, addend: 0x0, symName: __ZNKSt3__112basic_stringIcNS_11char_traitsIcEENS_9allocatorIcEEE18__get_long_pointerB8ue170006Ev, symObjAddr: 0x19B0, symBinAddr: 0x1000041EC, symSize: 0x28 }
  - { offsetInCU: 0xBAEC, offset: 0xBAEC, size: 0x8, addend: 0x0, symName: __ZNKSt3__112basic_stringIcNS_11char_traitsIcEENS_9allocatorIcEEE19__get_short_pointerB8ue170006Ev, symObjAddr: 0x19D8, symBinAddr: 0x100004214, symSize: 0x28 }
  - { offsetInCU: 0xBB11, offset: 0xBB11, size: 0x8, addend: 0x0, symName: __ZNKSt3__117__compressed_pairINS_12basic_stringIcNS_11char_traitsIcEENS_9allocatorIcEEE5__repES5_E5firstB8ue170006Ev, symObjAddr: 0x1A0C, symBinAddr: 0x100004248, symSize: 0x24 }
  - { offsetInCU: 0xBB36, offset: 0xBB36, size: 0x8, addend: 0x0, symName: __ZNKSt3__122__compressed_pair_elemINS_12basic_stringIcNS_11char_traitsIcEENS_9allocatorIcEEE5__repELi0ELb0EE5__getB8ue170006Ev, symObjAddr: 0x1A30, symBinAddr: 0x10000426C, symSize: 0x14 }
  - { offsetInCU: 0xBB5B, offset: 0xBB5B, size: 0x8, addend: 0x0, symName: __ZNSt3__114pointer_traitsIPKcE10pointer_toB8ue170006ERS1_, symObjAddr: 0x1A44, symBinAddr: 0x100004280, symSize: 0x14 }
  - { offsetInCU: 0xBB7E, offset: 0xBB7E, size: 0x8, addend: 0x0, symName: __ZNSt3__119ostreambuf_iteratorIcNS_11char_traitsIcEEEC2B8ue170006ERNS_13basic_ostreamIcS2_EE, symObjAddr: 0x1A58, symBinAddr: 0x100004294, symSize: 0x68 }
  - { offsetInCU: 0xBBB4, offset: 0xBBB4, size: 0x8, addend: 0x0, symName: __ZNKSt3__19basic_iosIcNS_11char_traitsIcEEE5rdbufB8ue170006Ev, symObjAddr: 0x1AC0, symBinAddr: 0x1000042FC, symSize: 0x24 }
  - { offsetInCU: 0xBBDB, offset: 0xBBDB, size: 0x8, addend: 0x0, symName: __ZNKSt3__18ios_base5rdbufB8ue170006Ev, symObjAddr: 0x1AE4, symBinAddr: 0x100004320, symSize: 0x18 }
  - { offsetInCU: 0xBC00, offset: 0xBC00, size: 0x8, addend: 0x0, symName: __ZNSt3__111char_traitsIcE11eq_int_typeB8ue170006Eii, symObjAddr: 0x1AFC, symBinAddr: 0x100004338, symSize: 0x28 }
  - { offsetInCU: 0xBC32, offset: 0xBC32, size: 0x8, addend: 0x0, symName: __ZNKSt3__19basic_iosIcNS_11char_traitsIcEEE5widenB8ue170006Ec, symObjAddr: 0x1B24, symBinAddr: 0x100004360, symSize: 0x8C }
  - { offsetInCU: 0xBC9F, offset: 0xBC9F, size: 0x8, addend: 0x0, symName: __ZNKSt3__15ctypeIcE5widenB8ue170006Ec, symObjAddr: 0x1BDC, symBinAddr: 0x100004418, symSize: 0x38 }
  - { offsetInCU: 0xBCD2, offset: 0xBCD2, size: 0x8, addend: 0x0, symName: __ZNSt3__18ios_base8setstateB8ue170006Ej, symObjAddr: 0x1C14, symBinAddr: 0x100004450, symSize: 0x34 }
  - { offsetInCU: 0xBD08, offset: 0xBD08, size: 0x8, addend: 0x0, symName: __ZNSt3__112basic_stringIcNS_11char_traitsIcEENS_9allocatorIcEEEC2B8ue170006ILi0EEEPKc, symObjAddr: 0x1C6C, symBinAddr: 0x1000044A8, symSize: 0x58 }
  - { offsetInCU: 0xBD4B, offset: 0xBD4B, size: 0x8, addend: 0x0, symName: __ZNSt3__117__compressed_pairINS_12basic_stringIcNS_11char_traitsIcEENS_9allocatorIcEEE5__repES5_EC1B8ue170006INS_18__default_init_tagESA_EEOT_OT0_, symObjAddr: 0x1CC4, symBinAddr: 0x100004500, symSize: 0x3C }
  - { offsetInCU: 0xBDA2, offset: 0xBDA2, size: 0x8, addend: 0x0, symName: __ZNSt3__117__compressed_pairINS_12basic_stringIcNS_11char_traitsIcEENS_9allocatorIcEEE5__repES5_EC2B8ue170006INS_18__default_init_tagESA_EEOT_OT0_, symObjAddr: 0x1D00, symBinAddr: 0x10000453C, symSize: 0x3C }
  - { offsetInCU: 0xBDF9, offset: 0xBDF9, size: 0x8, addend: 0x0, symName: __ZNSt3__122__compressed_pair_elemINS_12basic_stringIcNS_11char_traitsIcEENS_9allocatorIcEEE5__repELi0ELb0EEC2B8ue170006ENS_18__default_init_tagE, symObjAddr: 0x1D3C, symBinAddr: 0x100004578, symSize: 0x14 }
  - { offsetInCU: 0xBE2D, offset: 0xBE2D, size: 0x8, addend: 0x0, symName: __ZNSt3__122__compressed_pair_elemINS_9allocatorIcEELi1ELb1EEC2B8ue170006ENS_18__default_init_tagE, symObjAddr: 0x1D50, symBinAddr: 0x10000458C, symSize: 0x2C }
  - { offsetInCU: 0xBE61, offset: 0xBE61, size: 0x8, addend: 0x0, symName: __ZNSt3__19allocatorIcEC2B8ue170006Ev, symObjAddr: 0x1D7C, symBinAddr: 0x1000045B8, symSize: 0x2C }
  - { offsetInCU: 0xBE8A, offset: 0xBE8A, size: 0x8, addend: 0x0, symName: __ZNSt3__116__non_trivial_ifILb1ENS_9allocatorIcEEEC2B8ue170006Ev, symObjAddr: 0x1DA8, symBinAddr: 0x1000045E4, symSize: 0x14 }
  - { offsetInCU: 0xBEB3, offset: 0xBEB3, size: 0x8, addend: 0x0, symName: __ZNSt3__112basic_stringIcNS_11char_traitsIcEENS_9allocatorIcEEEC2B8ue170006Ev, symObjAddr: 0x1DBC, symBinAddr: 0x1000045F8, symSize: 0x3C }
  - { offsetInCU: 0xBEDC, offset: 0xBEDC, size: 0x8, addend: 0x0, symName: __ZNSt3__112basic_stringIcNS_11char_traitsIcEENS_9allocatorIcEEE14__default_initB8ue170006Ev, symObjAddr: 0x1DF8, symBinAddr: 0x100004634, symSize: 0xB0 }
  - { offsetInCU: 0xBF2E, offset: 0xBF2E, size: 0x8, addend: 0x0, symName: __ZNSt3__117__compressed_pairINS_12basic_stringIcNS_11char_traitsIcEENS_9allocatorIcEEE5__repES5_E5firstB8ue170006Ev, symObjAddr: 0x1EA8, symBinAddr: 0x1000046E4, symSize: 0x24 }
  - { offsetInCU: 0xBF53, offset: 0xBF53, size: 0x8, addend: 0x0, symName: __ZNSt3__112basic_stringIcNS_11char_traitsIcEENS_9allocatorIcEEE11__recommendB8ue170006Em, symObjAddr: 0x1ECC, symBinAddr: 0x100004708, symSize: 0x9C }
  - { offsetInCU: 0xBF86, offset: 0xBF86, size: 0x8, addend: 0x0, symName: __ZNSt3__116allocator_traitsINS_9allocatorIcEEE8allocateB8ue170006ERS2_m, symObjAddr: 0x1F68, symBinAddr: 0x1000047A4, symSize: 0x2C }
  - { offsetInCU: 0xBFB9, offset: 0xBFB9, size: 0x8, addend: 0x0, symName: __ZNSt3__112basic_stringIcNS_11char_traitsIcEENS_9allocatorIcEEE7__allocB8ue170006Ev, symObjAddr: 0x1F94, symBinAddr: 0x1000047D0, symSize: 0x24 }
  - { offsetInCU: 0xBFDE, offset: 0xBFDE, size: 0x8, addend: 0x0, symName: __ZNSt3__112basic_stringIcNS_11char_traitsIcEENS_9allocatorIcEEE16__begin_lifetimeB8ue170006EPcm, symObjAddr: 0x1FB8, symBinAddr: 0x1000047F4, symSize: 0x14 }
  - { offsetInCU: 0xC011, offset: 0xC011, size: 0x8, addend: 0x0, symName: __ZNSt3__112basic_stringIcNS_11char_traitsIcEENS_9allocatorIcEEE18__set_long_pointerB8ue170006EPc, symObjAddr: 0x1FCC, symBinAddr: 0x100004808, symSize: 0x38 }
  - { offsetInCU: 0xC045, offset: 0xC045, size: 0x8, addend: 0x0, symName: __ZNSt3__112basic_stringIcNS_11char_traitsIcEENS_9allocatorIcEEE14__set_long_capB8ue170006Em, symObjAddr: 0x2004, symBinAddr: 0x100004840, symSize: 0x70 }
  - { offsetInCU: 0xC079, offset: 0xC079, size: 0x8, addend: 0x0, symName: __ZNSt3__112basic_stringIcNS_11char_traitsIcEENS_9allocatorIcEEE15__set_long_sizeB8ue170006Em, symObjAddr: 0x2074, symBinAddr: 0x1000048B0, symSize: 0x38 }
  - { offsetInCU: 0xC0AD, offset: 0xC0AD, size: 0x8, addend: 0x0, symName: __ZNSt3__122__compressed_pair_elemINS_12basic_stringIcNS_11char_traitsIcEENS_9allocatorIcEEE5__repELi0ELb0EE5__getB8ue170006Ev, symObjAddr: 0x20AC, symBinAddr: 0x1000048E8, symSize: 0x14 }
  - { offsetInCU: 0xC0D2, offset: 0xC0D2, size: 0x8, addend: 0x0, symName: __ZNSt3__112basic_stringIcNS_11char_traitsIcEENS_9allocatorIcEEE10__align_itB8ue170006ILm16EEEmm, symObjAddr: 0x20C0, symBinAddr: 0x1000048FC, symSize: 0x1C }
  - { offsetInCU: 0xC100, offset: 0xC100, size: 0x8, addend: 0x0, symName: __ZNSt3__19allocatorIcE8allocateB8ue170006Em, symObjAddr: 0x20DC, symBinAddr: 0x100004918, symSize: 0x84 }
  - { offsetInCU: 0xC13D, offset: 0xC13D, size: 0x8, addend: 0x0, symName: __ZNSt3__116allocator_traitsINS_9allocatorIcEEE8max_sizeB8ue170006IS2_vEEmRKS2_, symObjAddr: 0x2160, symBinAddr: 0x10000499C, symSize: 0x24 }
  - { offsetInCU: 0xC16B, offset: 0xC16B, size: 0x8, addend: 0x0, symName: __ZNKSt3__19allocatorIcE8max_sizeB8ue170006Ev, symObjAddr: 0x21E0, symBinAddr: 0x100004A1C, symSize: 0x14 }
  - { offsetInCU: 0xC190, offset: 0xC190, size: 0x8, addend: 0x0, symName: __ZNSt3__117__compressed_pairINS_12basic_stringIcNS_11char_traitsIcEENS_9allocatorIcEEE5__repES5_E6secondB8ue170006Ev, symObjAddr: 0x2218, symBinAddr: 0x100004A54, symSize: 0x24 }
  - { offsetInCU: 0xC1B5, offset: 0xC1B5, size: 0x8, addend: 0x0, symName: __ZNSt3__122__compressed_pair_elemINS_9allocatorIcEELi1ELb1EE5__getB8ue170006Ev, symObjAddr: 0x223C, symBinAddr: 0x100004A78, symSize: 0x14 }
  - { offsetInCU: 0xC26C, offset: 0xC26C, size: 0x8, addend: 0x0, symName: __ZNKSt3__113basic_istreamIcNS_11char_traitsIcEEE6sentrycvbB8ue170006Ev, symObjAddr: 0x2488, symBinAddr: 0x100004CC4, symSize: 0x1C }
  - { offsetInCU: 0xC290, offset: 0xC290, size: 0x8, addend: 0x0, symName: __ZNSt3__112basic_stringIcNS_11char_traitsIcEENS_9allocatorIcEEE5clearB8ue170006Ev, symObjAddr: 0x24A4, symBinAddr: 0x100004CE0, symSize: 0x78 }
  - { offsetInCU: 0xC2B7, offset: 0xC2B7, size: 0x8, addend: 0x0, symName: __ZNSt3__115basic_streambufIcNS_11char_traitsIcEEE6sbumpcB8ue170006Ev, symObjAddr: 0x251C, symBinAddr: 0x100004D58, symSize: 0x78 }
  - { offsetInCU: 0xC2DC, offset: 0xC2DC, size: 0x8, addend: 0x0, symName: __ZNSt3__111char_traitsIcE12to_char_typeB8ue170006Ei, symObjAddr: 0x2594, symBinAddr: 0x100004DD0, symSize: 0x18 }
  - { offsetInCU: 0xC2FF, offset: 0xC2FF, size: 0x8, addend: 0x0, symName: __ZNSt3__111char_traitsIcE2eqEcc, symObjAddr: 0x25AC, symBinAddr: 0x100004DE8, symSize: 0x28 }
  - { offsetInCU: 0xC330, offset: 0xC330, size: 0x8, addend: 0x0, symName: __ZNKSt3__112basic_stringIcNS_11char_traitsIcEENS_9allocatorIcEEE4sizeB8ue170006Ev, symObjAddr: 0x25D4, symBinAddr: 0x100004E10, symSize: 0x54 }
  - { offsetInCU: 0xC355, offset: 0xC355, size: 0x8, addend: 0x0, symName: __ZNKSt3__112basic_stringIcNS_11char_traitsIcEENS_9allocatorIcEEE8max_sizeB8ue170006Ev, symObjAddr: 0x2628, symBinAddr: 0x100004E64, symSize: 0xAC }
  - { offsetInCU: 0xC3A7, offset: 0xC3A7, size: 0x8, addend: 0x0, symName: __ZNSt3__18ios_base18__setstate_nothrowB8ue170006Ej, symObjAddr: 0x26D4, symBinAddr: 0x100004F10, symSize: 0x64 }
  - { offsetInCU: 0xC3DB, offset: 0xC3DB, size: 0x8, addend: 0x0, symName: __ZNKSt3__19basic_iosIcNS_11char_traitsIcEEE10exceptionsB8ue170006Ev, symObjAddr: 0x2738, symBinAddr: 0x100004F74, symSize: 0x24 }
  - { offsetInCU: 0xC400, offset: 0xC400, size: 0x8, addend: 0x0, symName: __ZNSt3__111char_traitsIcE6assignB8ue170006ERcRKc, symObjAddr: 0x275C, symBinAddr: 0x100004F98, symSize: 0x24 }
  - { offsetInCU: 0xC431, offset: 0xC431, size: 0x8, addend: 0x0, symName: __ZNSt3__112basic_stringIcNS_11char_traitsIcEENS_9allocatorIcEEE18__get_long_pointerB8ue170006Ev, symObjAddr: 0x2780, symBinAddr: 0x100004FBC, symSize: 0x28 }
  - { offsetInCU: 0xC456, offset: 0xC456, size: 0x8, addend: 0x0, symName: __ZNSt3__112basic_stringIcNS_11char_traitsIcEENS_9allocatorIcEEE19__get_short_pointerB8ue170006Ev, symObjAddr: 0x27A8, symBinAddr: 0x100004FE4, symSize: 0x28 }
  - { offsetInCU: 0xC47B, offset: 0xC47B, size: 0x8, addend: 0x0, symName: __ZNSt3__112basic_stringIcNS_11char_traitsIcEENS_9allocatorIcEEE16__set_short_sizeB8ue170006Em, symObjAddr: 0x27D0, symBinAddr: 0x10000500C, symSize: 0x78 }
  - { offsetInCU: 0xC4AF, offset: 0xC4AF, size: 0x8, addend: 0x0, symName: __ZNSt3__114pointer_traitsIPcE10pointer_toB8ue170006ERc, symObjAddr: 0x2848, symBinAddr: 0x100005084, symSize: 0x14 }
  - { offsetInCU: 0xC4D2, offset: 0xC4D2, size: 0x8, addend: 0x0, symName: __ZNSt3__111char_traitsIcE11to_int_typeB8ue170006Ec, symObjAddr: 0x285C, symBinAddr: 0x100005098, symSize: 0x14 }
  - { offsetInCU: 0xC4F6, offset: 0xC4F6, size: 0x8, addend: 0x0, symName: __ZNKSt3__112basic_stringIcNS_11char_traitsIcEENS_9allocatorIcEEE15__get_long_sizeB8ue170006Ev, symObjAddr: 0x2870, symBinAddr: 0x1000050AC, symSize: 0x28 }
  - { offsetInCU: 0xC51B, offset: 0xC51B, size: 0x8, addend: 0x0, symName: __ZNKSt3__112basic_stringIcNS_11char_traitsIcEENS_9allocatorIcEEE16__get_short_sizeB8ue170006Ev, symObjAddr: 0x2898, symBinAddr: 0x1000050D4, symSize: 0x34 }
  - { offsetInCU: 0xC540, offset: 0xC540, size: 0x8, addend: 0x0, symName: __ZNKSt3__112basic_stringIcNS_11char_traitsIcEENS_9allocatorIcEEE7__allocB8ue170006Ev, symObjAddr: 0x28CC, symBinAddr: 0x100005108, symSize: 0x24 }
  - { offsetInCU: 0xC565, offset: 0xC565, size: 0x8, addend: 0x0, symName: __ZNSt3__114numeric_limitsImE3maxB8ue170006Ev, symObjAddr: 0x28F0, symBinAddr: 0x10000512C, symSize: 0x14 }
  - { offsetInCU: 0xC579, offset: 0xC579, size: 0x8, addend: 0x0, symName: __ZNKSt3__117__compressed_pairINS_12basic_stringIcNS_11char_traitsIcEENS_9allocatorIcEEE5__repES5_E6secondB8ue170006Ev, symObjAddr: 0x2904, symBinAddr: 0x100005140, symSize: 0x24 }
  - { offsetInCU: 0xC59E, offset: 0xC59E, size: 0x8, addend: 0x0, symName: __ZNKSt3__122__compressed_pair_elemINS_9allocatorIcEELi1ELb1EE5__getB8ue170006Ev, symObjAddr: 0x2928, symBinAddr: 0x100005164, symSize: 0x14 }
  - { offsetInCU: 0xC5C3, offset: 0xC5C3, size: 0x8, addend: 0x0, symName: __ZNSt3__123__libcpp_numeric_limitsImLb1EE3maxB8ue170006Ev, symObjAddr: 0x293C, symBinAddr: 0x100005178, symSize: 0x8 }
  - { offsetInCU: 0xC5D7, offset: 0xC5D7, size: 0x8, addend: 0x0, symName: __ZNKSt3__18ios_base10exceptionsB8ue170006Ev, symObjAddr: 0x2944, symBinAddr: 0x100005180, symSize: 0x18 }
  - { offsetInCU: 0xC5FE, offset: 0xC5FE, size: 0x8, addend: 0x0, symName: __ZNSt3__112basic_stringIcNS_11char_traitsIcEENS_9allocatorIcEEEC2B8ue170006Emc, symObjAddr: 0x295C, symBinAddr: 0x100005198, symSize: 0x4C }
  - { offsetInCU: 0xC645, offset: 0xC645, size: 0x8, addend: 0x0, symName: __ZNKSt3__16vectorIP4TaskNS_9allocatorIS2_EEE11__make_iterB8ue170006EPKS2_, symObjAddr: 0x29A8, symBinAddr: 0x1000051E4, symSize: 0x30 }
  - { offsetInCU: 0xC679, offset: 0xC679, size: 0x8, addend: 0x0, symName: __ZNSt3__111__wrap_iterIPKP4TaskEC1B8ue170006ES4_, symObjAddr: 0x29D8, symBinAddr: 0x100005214, symSize: 0x34 }
  - { offsetInCU: 0xC6B0, offset: 0xC6B0, size: 0x8, addend: 0x0, symName: __ZNSt3__111__wrap_iterIPKP4TaskEC2B8ue170006ES4_, symObjAddr: 0x2A0C, symBinAddr: 0x100005248, symSize: 0x20 }
  - { offsetInCU: 0xC6E7, offset: 0xC6E7, size: 0x8, addend: 0x0, symName: __ZNKSt3__111__wrap_iterIPKP4TaskE4baseB8ue170006Ev, symObjAddr: 0x2A74, symBinAddr: 0x1000052B0, symSize: 0x18 }
  - { offsetInCU: 0xC70C, offset: 0xC70C, size: 0x8, addend: 0x0, symName: __ZNSt3__16vectorIP4TaskNS_9allocatorIS2_EEEC2B8ue170006Ev, symObjAddr: 0x2A8C, symBinAddr: 0x1000052C8, symSize: 0x44 }
  - { offsetInCU: 0xC73A, offset: 0xC73A, size: 0x8, addend: 0x0, symName: __ZNSt3__117__compressed_pairIPP4TaskNS_9allocatorIS2_EEEC1B8ue170006IDnNS_18__default_init_tagEEEOT_OT0_, symObjAddr: 0x2AD0, symBinAddr: 0x10000530C, symSize: 0x3C }
  - { offsetInCU: 0xC791, offset: 0xC791, size: 0x8, addend: 0x0, symName: __ZNSt3__117__compressed_pairIPP4TaskNS_9allocatorIS2_EEEC2B8ue170006IDnNS_18__default_init_tagEEEOT_OT0_, symObjAddr: 0x2B0C, symBinAddr: 0x100005348, symSize: 0x40 }
  - { offsetInCU: 0xC7E8, offset: 0xC7E8, size: 0x8, addend: 0x0, symName: __ZNSt3__122__compressed_pair_elemIPP4TaskLi0ELb0EEC2B8ue170006IDnvEEOT_, symObjAddr: 0x2B4C, symBinAddr: 0x100005388, symSize: 0x1C }
  - { offsetInCU: 0xC829, offset: 0xC829, size: 0x8, addend: 0x0, symName: __ZNSt3__122__compressed_pair_elemINS_9allocatorIP4TaskEELi1ELb1EEC2B8ue170006ENS_18__default_init_tagE, symObjAddr: 0x2B68, symBinAddr: 0x1000053A4, symSize: 0x2C }
  - { offsetInCU: 0xC85D, offset: 0xC85D, size: 0x8, addend: 0x0, symName: __ZNSt3__19allocatorIP4TaskEC2B8ue170006Ev, symObjAddr: 0x2B94, symBinAddr: 0x1000053D0, symSize: 0x2C }
  - { offsetInCU: 0xC886, offset: 0xC886, size: 0x8, addend: 0x0, symName: __ZNSt3__116__non_trivial_ifILb1ENS_9allocatorIP4TaskEEEC2B8ue170006Ev, symObjAddr: 0x2BC0, symBinAddr: 0x1000053FC, symSize: 0x14 }
  - { offsetInCU: 0xC8AF, offset: 0xC8AF, size: 0x8, addend: 0x0, symName: __ZNSt3__16vectorIP4TaskNS_9allocatorIS2_EEED2B8ue170006Ev, symObjAddr: 0x2BD4, symBinAddr: 0x100005410, symSize: 0x3C }
  - { offsetInCU: 0xC8D8, offset: 0xC8D8, size: 0x8, addend: 0x0, symName: __ZNSt3__16vectorIP4TaskNS_9allocatorIS2_EEE16__destroy_vectorC1B8ue170006ERS5_, symObjAddr: 0x2C10, symBinAddr: 0x10000544C, symSize: 0x34 }
  - { offsetInCU: 0xC910, offset: 0xC910, size: 0x8, addend: 0x0, symName: __ZNSt3__16vectorIP4TaskNS_9allocatorIS2_EEE16__destroy_vectorclB8ue170006Ev, symObjAddr: 0x2C44, symBinAddr: 0x100005480, symSize: 0x90 }
  - { offsetInCU: 0xC935, offset: 0xC935, size: 0x8, addend: 0x0, symName: __ZNSt3__16vectorIP4TaskNS_9allocatorIS2_EEE16__destroy_vectorC2B8ue170006ERS5_, symObjAddr: 0x2CD4, symBinAddr: 0x100005510, symSize: 0x20 }
  - { offsetInCU: 0xC96D, offset: 0xC96D, size: 0x8, addend: 0x0, symName: __ZNSt3__16vectorIP4TaskNS_9allocatorIS2_EEE7__clearB8ue170006Ev, symObjAddr: 0x2CF4, symBinAddr: 0x100005530, symSize: 0x28 }
  - { offsetInCU: 0xC992, offset: 0xC992, size: 0x8, addend: 0x0, symName: __ZNKSt3__16vectorIP4TaskNS_9allocatorIS2_EEE17__annotate_deleteB8ue170006Ev, symObjAddr: 0x2D1C, symBinAddr: 0x100005558, symSize: 0xB8 }
  - { offsetInCU: 0xC9B7, offset: 0xC9B7, size: 0x8, addend: 0x0, symName: __ZNSt3__116allocator_traitsINS_9allocatorIP4TaskEEE10deallocateB8ue170006ERS4_PS3_m, symObjAddr: 0x2DD4, symBinAddr: 0x100005610, symSize: 0x34 }
  - { offsetInCU: 0xC9F9, offset: 0xC9F9, size: 0x8, addend: 0x0, symName: __ZNSt3__16vectorIP4TaskNS_9allocatorIS2_EEE7__allocB8ue170006Ev, symObjAddr: 0x2E08, symBinAddr: 0x100005644, symSize: 0x28 }
  - { offsetInCU: 0xCA1E, offset: 0xCA1E, size: 0x8, addend: 0x0, symName: __ZNKSt3__16vectorIP4TaskNS_9allocatorIS2_EEE8capacityB8ue170006Ev, symObjAddr: 0x2E30, symBinAddr: 0x10000566C, symSize: 0x40 }
  - { offsetInCU: 0xCA43, offset: 0xCA43, size: 0x8, addend: 0x0, symName: __ZNSt3__16vectorIP4TaskNS_9allocatorIS2_EEE22__base_destruct_at_endB8ue170006EPS2_, symObjAddr: 0x2E70, symBinAddr: 0x1000056AC, symSize: 0xA0 }
  - { offsetInCU: 0xCA86, offset: 0xCA86, size: 0x8, addend: 0x0, symName: __ZNSt3__116allocator_traitsINS_9allocatorIP4TaskEEE7destroyB8ue170006IS3_vEEvRS4_PT_, symObjAddr: 0x2F10, symBinAddr: 0x10000574C, symSize: 0x2C }
  - { offsetInCU: 0xCAC3, offset: 0xCAC3, size: 0x8, addend: 0x0, symName: __ZNSt3__19allocatorIP4TaskE7destroyB8ue170006EPS2_, symObjAddr: 0x2F50, symBinAddr: 0x10000578C, symSize: 0x14 }
  - { offsetInCU: 0xCAF6, offset: 0xCAF6, size: 0x8, addend: 0x0, symName: __ZNKSt3__16vectorIP4TaskNS_9allocatorIS2_EEE31__annotate_contiguous_containerB8ue170006EPKvS7_S7_S7_, symObjAddr: 0x2F64, symBinAddr: 0x1000057A0, symSize: 0x20 }
  - { offsetInCU: 0xCB47, offset: 0xCB47, size: 0x8, addend: 0x0, symName: __ZNKSt3__16vectorIP4TaskNS_9allocatorIS2_EEE4dataB8ue170006Ev, symObjAddr: 0x2F84, symBinAddr: 0x1000057C0, symSize: 0x28 }
  - { offsetInCU: 0xCB6C, offset: 0xCB6C, size: 0x8, addend: 0x0, symName: __ZNKSt3__16vectorIP4TaskNS_9allocatorIS2_EEE4sizeB8ue170006Ev, symObjAddr: 0x2FAC, symBinAddr: 0x1000057E8, symSize: 0x28 }
  - { offsetInCU: 0xCB91, offset: 0xCB91, size: 0x8, addend: 0x0, symName: __ZNSt3__19allocatorIP4TaskE10deallocateB8ue170006EPS2_m, symObjAddr: 0x2FD4, symBinAddr: 0x100005810, symSize: 0x70 }
  - { offsetInCU: 0xCBD2, offset: 0xCBD2, size: 0x8, addend: 0x0, symName: __ZNSt3__117__compressed_pairIPP4TaskNS_9allocatorIS2_EEE6secondB8ue170006Ev, symObjAddr: 0x30C0, symBinAddr: 0x1000058FC, symSize: 0x24 }
  - { offsetInCU: 0xCBF7, offset: 0xCBF7, size: 0x8, addend: 0x0, symName: __ZNSt3__122__compressed_pair_elemINS_9allocatorIP4TaskEELi1ELb1EE5__getB8ue170006Ev, symObjAddr: 0x30E4, symBinAddr: 0x100005920, symSize: 0x14 }
  - { offsetInCU: 0xCC1C, offset: 0xCC1C, size: 0x8, addend: 0x0, symName: __ZNKSt3__16vectorIP4TaskNS_9allocatorIS2_EEE9__end_capB8ue170006Ev, symObjAddr: 0x30F8, symBinAddr: 0x100005934, symSize: 0x28 }
  - { offsetInCU: 0xCC41, offset: 0xCC41, size: 0x8, addend: 0x0, symName: __ZNKSt3__117__compressed_pairIPP4TaskNS_9allocatorIS2_EEE5firstB8ue170006Ev, symObjAddr: 0x3120, symBinAddr: 0x10000595C, symSize: 0x24 }
  - { offsetInCU: 0xCC66, offset: 0xCC66, size: 0x8, addend: 0x0, symName: __ZNKSt3__122__compressed_pair_elemIPP4TaskLi0ELb0EE5__getB8ue170006Ev, symObjAddr: 0x3144, symBinAddr: 0x100005980, symSize: 0x14 }
  - { offsetInCU: 0xCC8B, offset: 0xCC8B, size: 0x8, addend: 0x0, symName: __ZNSt3__16vectorIP4TaskNS_9allocatorIS2_EEE9__end_capB8ue170006Ev, symObjAddr: 0x3158, symBinAddr: 0x100005994, symSize: 0x28 }
  - { offsetInCU: 0xCCB5, offset: 0xCCB5, size: 0x8, addend: 0x0, symName: __ZNSt3__16vectorIP4TaskNS_9allocatorIS2_EEE22__construct_one_at_endB8ue170006IJS2_EEEvDpOT_, symObjAddr: 0x3180, symBinAddr: 0x1000059BC, symSize: 0x98 }
  - { offsetInCU: 0xCD02, offset: 0xCD02, size: 0x8, addend: 0x0, symName: __ZNSt3__16vectorIP4TaskNS_9allocatorIS2_EEE21__push_back_slow_pathIS2_EEvOT_, symObjAddr: 0x3218, symBinAddr: 0x100005A54, symSize: 0xE0 }
  - { offsetInCU: 0xCD5F, offset: 0xCD5F, size: 0x8, addend: 0x0, symName: __ZNSt3__117__compressed_pairIPP4TaskNS_9allocatorIS2_EEE5firstB8ue170006Ev, symObjAddr: 0x32F8, symBinAddr: 0x100005B34, symSize: 0x24 }
  - { offsetInCU: 0xCD84, offset: 0xCD84, size: 0x8, addend: 0x0, symName: __ZNSt3__122__compressed_pair_elemIPP4TaskLi0ELb0EE5__getB8ue170006Ev, symObjAddr: 0x331C, symBinAddr: 0x100005B58, symSize: 0x14 }
  - { offsetInCU: 0xCDC2, offset: 0xCDC2, size: 0x8, addend: 0x0, symName: __ZNSt3__16vectorIP4TaskNS_9allocatorIS2_EEE21_ConstructTransactionC1B8ue170006ERS5_m, symObjAddr: 0x3330, symBinAddr: 0x100005B6C, symSize: 0x3C }
  - { offsetInCU: 0xCE09, offset: 0xCE09, size: 0x8, addend: 0x0, symName: __ZNSt3__116allocator_traitsINS_9allocatorIP4TaskEEE9constructB8ue170006IS3_JS3_EvEEvRS4_PT_DpOT0_, symObjAddr: 0x336C, symBinAddr: 0x100005BA8, symSize: 0x34 }
  - { offsetInCU: 0xCE60, offset: 0xCE60, size: 0x8, addend: 0x0, symName: __ZNSt3__16vectorIP4TaskNS_9allocatorIS2_EEE21_ConstructTransactionD1B8ue170006Ev, symObjAddr: 0x33A0, symBinAddr: 0x100005BDC, symSize: 0x2C }
  - { offsetInCU: 0xCE89, offset: 0xCE89, size: 0x8, addend: 0x0, symName: __ZNSt3__16vectorIP4TaskNS_9allocatorIS2_EEE21_ConstructTransactionC2B8ue170006ERS5_m, symObjAddr: 0x33CC, symBinAddr: 0x100005C08, symSize: 0x44 }
  - { offsetInCU: 0xCED0, offset: 0xCED0, size: 0x8, addend: 0x0, symName: __ZNSt3__19allocatorIP4TaskE9constructB8ue170006IS2_JS2_EEEvPT_DpOT0_, symObjAddr: 0x3410, symBinAddr: 0x100005C4C, symSize: 0x28 }
  - { offsetInCU: 0xCF25, offset: 0xCF25, size: 0x8, addend: 0x0, symName: __ZNSt3__16vectorIP4TaskNS_9allocatorIS2_EEE21_ConstructTransactionD2B8ue170006Ev, symObjAddr: 0x3438, symBinAddr: 0x100005C74, symSize: 0x20 }
  - { offsetInCU: 0xCF4D, offset: 0xCF4D, size: 0x8, addend: 0x0, symName: __ZNKSt3__16vectorIP4TaskNS_9allocatorIS2_EEE11__recommendB8ue170006Em, symObjAddr: 0x3458, symBinAddr: 0x100005C94, symSize: 0xB4 }
  - { offsetInCU: 0xCFA1, offset: 0xCFA1, size: 0x8, addend: 0x0, symName: __ZNSt3__114__split_bufferIP4TaskRNS_9allocatorIS2_EEEC1EmmS5_, symObjAddr: 0x350C, symBinAddr: 0x100005D48, symSize: 0x44 }
  - { offsetInCU: 0xCFF6, offset: 0xCFF6, size: 0x8, addend: 0x0, symName: __ZNSt3__114__split_bufferIP4TaskRNS_9allocatorIS2_EEED1Ev, symObjAddr: 0x3660, symBinAddr: 0x100005E9C, symSize: 0x2C }
  - { offsetInCU: 0xD020, offset: 0xD020, size: 0x8, addend: 0x0, symName: __ZNKSt3__16vectorIP4TaskNS_9allocatorIS2_EEE8max_sizeEv, symObjAddr: 0x368C, symBinAddr: 0x100005EC8, symSize: 0x74 }
  - { offsetInCU: 0xD047, offset: 0xD047, size: 0x8, addend: 0x0, symName: __ZNKSt3__16vectorIP4TaskNS_9allocatorIS2_EEE20__throw_length_errorB8ue170006Ev, symObjAddr: 0x3700, symBinAddr: 0x100005F3C, symSize: 0x1C }
  - { offsetInCU: 0xD076, offset: 0xD076, size: 0x8, addend: 0x0, symName: __ZNSt3__116allocator_traitsINS_9allocatorIP4TaskEEE8max_sizeB8ue170006IS4_vEEmRKS4_, symObjAddr: 0x3774, symBinAddr: 0x100005FB0, symSize: 0x24 }
  - { offsetInCU: 0xD0A4, offset: 0xD0A4, size: 0x8, addend: 0x0, symName: __ZNKSt3__16vectorIP4TaskNS_9allocatorIS2_EEE7__allocB8ue170006Ev, symObjAddr: 0x3798, symBinAddr: 0x100005FD4, symSize: 0x28 }
  - { offsetInCU: 0xD0C9, offset: 0xD0C9, size: 0x8, addend: 0x0, symName: __ZNSt3__114numeric_limitsIlE3maxB8ue170006Ev, symObjAddr: 0x37C0, symBinAddr: 0x100005FFC, symSize: 0x14 }
  - { offsetInCU: 0xD0F1, offset: 0xD0F1, size: 0x8, addend: 0x0, symName: __ZNKSt3__16__lessIvvEclB8ue170006ImmEEbRKT_RKT0_, symObjAddr: 0x3828, symBinAddr: 0x100006064, symSize: 0x34 }
  - { offsetInCU: 0xD144, offset: 0xD144, size: 0x8, addend: 0x0, symName: __ZNKSt3__19allocatorIP4TaskE8max_sizeB8ue170006Ev, symObjAddr: 0x385C, symBinAddr: 0x100006098, symSize: 0x14 }
  - { offsetInCU: 0xD169, offset: 0xD169, size: 0x8, addend: 0x0, symName: __ZNKSt3__117__compressed_pairIPP4TaskNS_9allocatorIS2_EEE6secondB8ue170006Ev, symObjAddr: 0x3870, symBinAddr: 0x1000060AC, symSize: 0x24 }
  - { offsetInCU: 0xD18E, offset: 0xD18E, size: 0x8, addend: 0x0, symName: __ZNKSt3__122__compressed_pair_elemINS_9allocatorIP4TaskEELi1ELb1EE5__getB8ue170006Ev, symObjAddr: 0x3894, symBinAddr: 0x1000060D0, symSize: 0x14 }
  - { offsetInCU: 0xD1B3, offset: 0xD1B3, size: 0x8, addend: 0x0, symName: __ZNSt3__123__libcpp_numeric_limitsIlLb1EE3maxB8ue170006Ev, symObjAddr: 0x38A8, symBinAddr: 0x1000060E4, symSize: 0x8 }
  - { offsetInCU: 0xD1C7, offset: 0xD1C7, size: 0x8, addend: 0x0, symName: __ZNSt12length_errorC1B8ue170006EPKc, symObjAddr: 0x3914, symBinAddr: 0x100006150, symSize: 0x34 }
  - { offsetInCU: 0xD1FE, offset: 0xD1FE, size: 0x8, addend: 0x0, symName: __ZNSt12length_errorC2B8ue170006EPKc, symObjAddr: 0x3948, symBinAddr: 0x100006184, symSize: 0x4C }
  - { offsetInCU: 0xD235, offset: 0xD235, size: 0x8, addend: 0x0, symName: __ZNSt3__114__split_bufferIP4TaskRNS_9allocatorIS2_EEEC2EmmS5_, symObjAddr: 0x39E8, symBinAddr: 0x100006224, symSize: 0xD4 }
  - { offsetInCU: 0xD2A8, offset: 0xD2A8, size: 0x8, addend: 0x0, symName: __ZNSt3__117__compressed_pairIPP4TaskRNS_9allocatorIS2_EEEC1B8ue170006IDnS6_EEOT_OT0_, symObjAddr: 0x3ABC, symBinAddr: 0x1000062F8, symSize: 0x3C }
  - { offsetInCU: 0xD2FF, offset: 0xD2FF, size: 0x8, addend: 0x0, symName: __ZNSt3__114__split_bufferIP4TaskRNS_9allocatorIS2_EEE7__allocB8ue170006Ev, symObjAddr: 0x3B38, symBinAddr: 0x100006374, symSize: 0x28 }
  - { offsetInCU: 0xD324, offset: 0xD324, size: 0x8, addend: 0x0, symName: __ZNSt3__114__split_bufferIP4TaskRNS_9allocatorIS2_EEE9__end_capB8ue170006Ev, symObjAddr: 0x3B60, symBinAddr: 0x10000639C, symSize: 0x28 }
  - { offsetInCU: 0xD349, offset: 0xD349, size: 0x8, addend: 0x0, symName: __ZNSt3__117__compressed_pairIPP4TaskRNS_9allocatorIS2_EEEC2B8ue170006IDnS6_EEOT_OT0_, symObjAddr: 0x3B88, symBinAddr: 0x1000063C4, symSize: 0x48 }
  - { offsetInCU: 0xD3A0, offset: 0xD3A0, size: 0x8, addend: 0x0, symName: __ZNSt3__122__compressed_pair_elemIRNS_9allocatorIP4TaskEELi1ELb0EEC2B8ue170006IS5_vEEOT_, symObjAddr: 0x3BD0, symBinAddr: 0x10000640C, symSize: 0x20 }
  - { offsetInCU: 0xD3E1, offset: 0xD3E1, size: 0x8, addend: 0x0, symName: __ZNSt3__19allocatorIP4TaskE8allocateB8ue170006Em, symObjAddr: 0x3BF0, symBinAddr: 0x10000642C, symSize: 0x84 }
  - { offsetInCU: 0xD414, offset: 0xD414, size: 0x8, addend: 0x0, symName: __ZNSt3__117__compressed_pairIPP4TaskRNS_9allocatorIS2_EEE6secondB8ue170006Ev, symObjAddr: 0x3C74, symBinAddr: 0x1000064B0, symSize: 0x28 }
  - { offsetInCU: 0xD439, offset: 0xD439, size: 0x8, addend: 0x0, symName: __ZNSt3__122__compressed_pair_elemIRNS_9allocatorIP4TaskEELi1ELb0EE5__getB8ue170006Ev, symObjAddr: 0x3C9C, symBinAddr: 0x1000064D8, symSize: 0x18 }
  - { offsetInCU: 0xD45E, offset: 0xD45E, size: 0x8, addend: 0x0, symName: __ZNSt3__117__compressed_pairIPP4TaskRNS_9allocatorIS2_EEE5firstB8ue170006Ev, symObjAddr: 0x3CB4, symBinAddr: 0x1000064F0, symSize: 0x24 }
  - { offsetInCU: 0xD483, offset: 0xD483, size: 0x8, addend: 0x0, symName: __ZNSt3__116reverse_iteratorIPP4TaskEC1B8ue170006ES3_, symObjAddr: 0x3DC0, symBinAddr: 0x1000065FC, symSize: 0x34 }
  - { offsetInCU: 0xD4BA, offset: 0xD4BA, size: 0x8, addend: 0x0, symName: __ZNKSt3__116reverse_iteratorIPP4TaskE4baseB8ue170006Ev, symObjAddr: 0x3DF4, symBinAddr: 0x100006630, symSize: 0x18 }
  - { offsetInCU: 0xD4DF, offset: 0xD4DF, size: 0x8, addend: 0x0, symName: __ZNKSt3__16vectorIP4TaskNS_9allocatorIS2_EEE14__annotate_newB8ue170006Em, symObjAddr: 0x3E48, symBinAddr: 0x100006684, symSize: 0xAC }
  - { offsetInCU: 0xD513, offset: 0xD513, size: 0x8, addend: 0x0, symName: __ZNKSt3__116reverse_iteratorIPP4TaskEdeB8ue170006Ev, symObjAddr: 0x3F8C, symBinAddr: 0x1000067C8, symSize: 0x28 }
  - { offsetInCU: 0xD546, offset: 0xD546, size: 0x8, addend: 0x0, symName: __ZNSt3__116reverse_iteratorIPP4TaskEppB8ue170006Ev, symObjAddr: 0x3FB4, symBinAddr: 0x1000067F0, symSize: 0x20 }
  - { offsetInCU: 0xD570, offset: 0xD570, size: 0x8, addend: 0x0, symName: __ZNSt3__119__to_address_helperINS_16reverse_iteratorIPP4TaskEEvE6__callB8ue170006ERKS5_, symObjAddr: 0x404C, symBinAddr: 0x100006888, symSize: 0x4C }
  - { offsetInCU: 0xD593, offset: 0xD593, size: 0x8, addend: 0x0, symName: __ZNKSt3__116reverse_iteratorIPP4TaskEptB8ue170006Ev, symObjAddr: 0x4098, symBinAddr: 0x1000068D4, symSize: 0x24 }
  - { offsetInCU: 0xD5DB, offset: 0xD5DB, size: 0x8, addend: 0x0, symName: __ZNKSt3__111__move_loopINS_17_ClassicAlgPolicyEEclB8ue170006INS_16reverse_iteratorIPP4TaskEES8_S8_EENS_4pairIT_T1_EESA_T0_SB_, symObjAddr: 0x4334, symBinAddr: 0x100006B70, symSize: 0xA0 }
  - { offsetInCU: 0xD645, offset: 0xD645, size: 0x8, addend: 0x0, symName: __ZNSt3__18_IterOpsINS_17_ClassicAlgPolicyEE11__iter_moveB8ue170006IRNS_16reverse_iteratorIPP4TaskEEEENS_9enable_ifIXsr12is_referenceIDTdeclsr3stdE7declvalIRT_EEEEE5valueEDTclsr3stdE4movedeclsr3stdE7declvalISC_EEEEE4typeEOSB_, symObjAddr: 0x4534, symBinAddr: 0x100006D70, symSize: 0x28 }
  - { offsetInCU: 0xD671, offset: 0xD671, size: 0x8, addend: 0x0, symName: __ZNSt3__18_IterOpsINS_17_ClassicAlgPolicyEE25__validate_iter_referenceB8ue170006IRNS_16reverse_iteratorIPP4TaskEEEEvv, symObjAddr: 0x455C, symBinAddr: 0x100006D98, symSize: 0x4 }
  - { offsetInCU: 0xD68F, offset: 0xD68F, size: 0x8, addend: 0x0, symName: __ZNSt3__118__unwrap_iter_implINS_16reverse_iteratorIPP4TaskEELb0EE8__unwrapB8ue170006ES5_, symObjAddr: 0x4560, symBinAddr: 0x100006D9C, symSize: 0x24 }
  - { offsetInCU: 0xD6B2, offset: 0xD6B2, size: 0x8, addend: 0x0, symName: __ZNSt3__14pairINS_16reverse_iteratorIPP4TaskEES5_EC1B8ue170006ERKS5_S8_, symObjAddr: 0x4584, symBinAddr: 0x100006DC0, symSize: 0x3C }
  - { offsetInCU: 0xD6F7, offset: 0xD6F7, size: 0x8, addend: 0x0, symName: __ZNSt3__14pairINS_16reverse_iteratorIPP4TaskEES5_EC2B8ue170006ERKS5_S8_, symObjAddr: 0x45C0, symBinAddr: 0x100006DFC, symSize: 0x34 }
  - { offsetInCU: 0xD73C, offset: 0xD73C, size: 0x8, addend: 0x0, symName: __ZNSt3__118__unwrap_iter_implINS_16reverse_iteratorIPP4TaskEELb0EE8__rewrapB8ue170006ES5_S5_, symObjAddr: 0x45F4, symBinAddr: 0x100006E30, symSize: 0x2C }
  - { offsetInCU: 0xD76A, offset: 0xD76A, size: 0x8, addend: 0x0, symName: __ZNSt3__116reverse_iteratorIPP4TaskEC2B8ue170006ES3_, symObjAddr: 0x4620, symBinAddr: 0x100006E5C, symSize: 0x28 }
  - { offsetInCU: 0xD7A1, offset: 0xD7A1, size: 0x8, addend: 0x0, symName: __ZNSt3__114__split_bufferIP4TaskRNS_9allocatorIS2_EEED2Ev, symObjAddr: 0x4648, symBinAddr: 0x100006E84, symSize: 0x80 }
  - { offsetInCU: 0xD7CC, offset: 0xD7CC, size: 0x8, addend: 0x0, symName: __ZNSt3__114__split_bufferIP4TaskRNS_9allocatorIS2_EEE5clearB8ue170006Ev, symObjAddr: 0x46C8, symBinAddr: 0x100006F04, symSize: 0x28 }
  - { offsetInCU: 0xD7F1, offset: 0xD7F1, size: 0x8, addend: 0x0, symName: __ZNKSt3__114__split_bufferIP4TaskRNS_9allocatorIS2_EEE8capacityB8ue170006Ev, symObjAddr: 0x46F0, symBinAddr: 0x100006F2C, symSize: 0x40 }
  - { offsetInCU: 0xD816, offset: 0xD816, size: 0x8, addend: 0x0, symName: __ZNSt3__114__split_bufferIP4TaskRNS_9allocatorIS2_EEE17__destruct_at_endB8ue170006EPS2_, symObjAddr: 0x4730, symBinAddr: 0x100006F6C, symSize: 0x2C }
  - { offsetInCU: 0xD848, offset: 0xD848, size: 0x8, addend: 0x0, symName: __ZNSt3__114__split_bufferIP4TaskRNS_9allocatorIS2_EEE17__destruct_at_endB8ue170006EPS2_NS_17integral_constantIbLb0EEE, symObjAddr: 0x475C, symBinAddr: 0x100006F98, symSize: 0x94 }
  - { offsetInCU: 0xD888, offset: 0xD888, size: 0x8, addend: 0x0, symName: __ZNKSt3__114__split_bufferIP4TaskRNS_9allocatorIS2_EEE9__end_capB8ue170006Ev, symObjAddr: 0x47F0, symBinAddr: 0x10000702C, symSize: 0x28 }
  - { offsetInCU: 0xD8AD, offset: 0xD8AD, size: 0x8, addend: 0x0, symName: __ZNKSt3__117__compressed_pairIPP4TaskRNS_9allocatorIS2_EEE5firstB8ue170006Ev, symObjAddr: 0x4818, symBinAddr: 0x100007054, symSize: 0x24 }
  - { offsetInCU: 0xD8D2, offset: 0xD8D2, size: 0x8, addend: 0x0, symName: __ZNSt3__16vectorIP4TaskNS_9allocatorIS2_EEE22__construct_one_at_endB8ue170006IJRKS2_EEEvDpOT_, symObjAddr: 0x483C, symBinAddr: 0x100007078, symSize: 0x98 }
  - { offsetInCU: 0xD91F, offset: 0xD91F, size: 0x8, addend: 0x0, symName: __ZNSt3__16vectorIP4TaskNS_9allocatorIS2_EEE21__push_back_slow_pathIRKS2_EEvOT_, symObjAddr: 0x48D4, symBinAddr: 0x100007110, symSize: 0xE0 }
  - { offsetInCU: 0xD97C, offset: 0xD97C, size: 0x8, addend: 0x0, symName: __ZNSt3__116allocator_traitsINS_9allocatorIP4TaskEEE9constructB8ue170006IS3_JRKS3_EvEEvRS4_PT_DpOT0_, symObjAddr: 0x49B4, symBinAddr: 0x1000071F0, symSize: 0x34 }
  - { offsetInCU: 0xD9D3, offset: 0xD9D3, size: 0x8, addend: 0x0, symName: __ZNSt3__19allocatorIP4TaskE9constructB8ue170006IS2_JRKS2_EEEvPT_DpOT0_, symObjAddr: 0x49E8, symBinAddr: 0x100007224, symSize: 0x28 }
...
